Certificate:
    Data:
        Version: 3 (0x2)
        Serial Number: 2 (0x2)
    Signature Algorithm: sha256WithRSAEncryption
        Issuer: C=CN, ST=GZ, L=XY, O=ZHYL, OU=OPS, CN=ZHYL CA/name=EasyRSA/emailAddress=xiaochao@zh-echem.com
        Validity
            Not Before: May 17 08:19:14 2018 GMT
            Not After : May 14 08:19:14 2028 GMT
        Subject: C=CN, ST=GZ, L=XY, O=ZHYL, OU=OPS, CN=client/name=EasyRSA/emailAddress=xiaochao@zh-echem.com
        Subject Public Key Info:
            Public Key Algorithm: rsaEncryption
                Public-Key: (2048 bit)
                Modulus:
                    00:c9:35:11:07:c3:86:2e:51:a5:90:21:31:05:17:
                    9e:96:aa:3c:84:08:f0:a7:7c:85:77:15:b9:4a:65:
                    c7:06:b3:43:e9:8d:ba:f1:8a:27:d0:91:0d:65:5c:
                    ff:d2:eb:dd:c6:9b:d5:0f:92:f9:c8:d4:a2:19:8d:
                    76:f6:1b:63:8d:18:7a:63:e3:8a:c3:02:ee:98:34:
                    9d:de:fe:46:74:90:2b:37:bd:0e:5f:4b:cb:d1:f0:
                    b7:9d:f8:15:e5:10:02:c1:99:72:dd:2f:5c:79:2e:
                    f1:21:87:6f:87:55:bf:69:f7:43:62:7f:fa:ee:73:
                    25:4c:dd:62:e3:6a:07:90:de:75:03:d6:b6:a8:c5:
                    0d:74:d9:f4:5c:bd:df:ce:91:4e:d2:67:d2:bf:9f:
                    9d:40:79:9b:e2:e4:56:78:68:f5:29:74:fe:f9:dc:
                    f5:98:d3:b4:47:86:2f:91:91:b7:ac:d6:3a:4d:9e:
                    07:ca:24:79:82:89:47:6e:ef:64:ce:e1:99:e8:10:
                    42:b0:65:a0:e6:b2:94:ae:19:b5:0f:e5:20:46:fd:
                    0a:4c:0e:12:2f:12:53:44:5a:f7:6e:c0:26:92:4f:
                    9d:9d:6e:95:10:3e:50:db:07:af:58:24:3a:a2:bb:
                    ee:fb:0c:99:d9:a7:e7:7c:71:95:04:b7:a0:67:0e:
                    15:77
                Exponent: 65537 (0x10001)
        X509v3 extensions:
            X509v3 Basic Constraints: 
                CA:FALSE
            Netscape Comment: 
                Easy-RSA Generated Certificate
            X509v3 Subject Key Identifier: 
                FB:8B:20:5A:BD:34:7B:B4:F5:F6:07:67:C3:B3:83:31:AE:BB:C9:63
            X509v3 Authority Key Identifier: 
                keyid:4A:88:3A:8D:4A:CB:F8:8E:53:1A:A1:19:F0:C2:36:8D:B9:87:62:C1
                DirName:/C=CN/ST=GZ/L=XY/O=ZHYL/OU=OPS/CN=ZHYL CA/name=EasyRSA/emailAddress=xiaochao@zh-echem.com
                serial:A3:05:2D:9E:C5:5A:7B:C4

            X509v3 Extended Key Usage: 
                TLS Web Client Authentication
            X509v3 Key Usage: 
                Digital Signature
    Signature Algorithm: sha256WithRSAEncryption
         04:fc:a2:20:ef:35:65:74:f5:15:1c:fd:a8:8d:ad:6f:4e:13:
         3e:ef:6f:39:b7:71:65:b1:a8:47:02:78:66:59:d4:47:e1:9e:
         8e:3e:17:1b:f6:1c:2f:91:26:b1:31:b3:f6:b6:d0:04:e1:cb:
         90:5e:25:29:8b:9b:cc:64:29:8a:a6:32:be:2f:7e:46:6a:af:
         f0:53:a5:fa:96:9b:f9:bc:61:82:6c:04:bc:b0:e6:ad:dd:57:
         9b:bc:02:ff:c3:db:10:a0:e5:b4:3b:d5:f6:63:bd:01:3a:ce:
         31:35:fe:9a:5b:4c:2c:5a:fb:03:3f:91:44:40:99:02:91:2f:
         11:58:31:38:57:d8:4d:9f:10:ee:21:57:d3:4b:2c:58:f4:02:
         1a:08:32:3e:44:5d:a9:85:60:a6:ed:96:48:39:9f:fa:13:86:
         61:1a:f7:c5:60:84:2e:2d:18:a5:ee:5f:b0:a5:4a:ae:b6:86:
         e2:c2:14:3e:cd:4d:a9:34:57:81:44:7a:dc:6d:63:19:ea:0e:
         6a:8a:85:e4:94:54:5e:a6:f6:e4:90:9e:69:2c:d1:7d:c5:fa:
         5f:13:98:f1:60:01:87:9c:e1:87:ed:ed:8c:74:87:f3:06:a9:
         26:75:d0:7d:22:3f:85:18:13:dc:0a:27:7a:f7:73:14:6e:9f:
         46:dd:46:c6
-----BEGIN CERTIFICATE-----
MIIE3zCCA8egAwIBAgIBAjANBgkqhkiG9w0BAQsFADCBjjELMAkGA1UEBhMCQ04x
CzAJBgNVBAgTAkdaMQswCQYDVQQHEwJYWTENMAsGA1UEChMEWkhZTDEMMAoGA1UE
CxMDT1BTMRAwDgYDVQQDEwdaSFlMIENBMRAwDgYDVQQpEwdFYXN5UlNBMSQwIgYJ
KoZIhvcNAQkBFhV4aWFvY2hhb0B6aC1lY2hlbS5jb20wHhcNMTgwNTE3MDgxOTE0
WhcNMjgwNTE0MDgxOTE0WjCBjTELMAkGA1UEBhMCQ04xCzAJBgNVBAgTAkdaMQsw
CQYDVQQHEwJYWTENMAsGA1UEChMEWkhZTDEMMAoGA1UECxMDT1BTMQ8wDQYDVQQD
EwZjbGllbnQxEDAOBgNVBCkTB0Vhc3lSU0ExJDAiBgkqhkiG9w0BCQEWFXhpYW9j
aGFvQHpoLWVjaGVtLmNvbTCCASIwDQYJKoZIhvcNAQEBBQADggEPADCCAQoCggEB
AMk1EQfDhi5RpZAhMQUXnpaqPIQI8Kd8hXcVuUplxwazQ+mNuvGKJ9CRDWVc/9Lr
3cab1Q+S+cjUohmNdvYbY40YemPjisMC7pg0nd7+RnSQKze9Dl9Ly9Hwt534FeUQ
AsGZct0vXHku8SGHb4dVv2n3Q2J/+u5zJUzdYuNqB5DedQPWtqjFDXTZ9Fy9386R
TtJn0r+fnUB5m+LkVnho9Sl0/vnc9ZjTtEeGL5GRt6zWOk2eB8okeYKJR27vZM7h
megQQrBloOaylK4ZtQ/lIEb9CkwOEi8SU0Ra927AJpJPnZ1ulRA+UNsHr1gkOqK7
7vsMmdmn53xxlQS3oGcOFXcCAwEAAaOCAUUwggFBMAkGA1UdEwQCMAAwLQYJYIZI
AYb4QgENBCAWHkVhc3ktUlNBIEdlbmVyYXRlZCBDZXJ0aWZpY2F0ZTAdBgNVHQ4E
FgQU+4sgWr00e7T19gdnw7ODMa67yWMwgcMGA1UdIwSBuzCBuIAUSog6jUrL+I5T
GqEZ8MI2jbmHYsGhgZSkgZEwgY4xCzAJBgNVBAYTAkNOMQswCQYDVQQIEwJHWjEL
MAkGA1UEBxMCWFkxDTALBgNVBAoTBFpIWUwxDDAKBgNVBAsTA09QUzEQMA4GA1UE
AxMHWkhZTCBDQTEQMA4GA1UEKRMHRWFzeVJTQTEkMCIGCSqGSIb3DQEJARYVeGlh
b2NoYW9AemgtZWNoZW0uY29tggkAowUtnsVae8QwEwYDVR0lBAwwCgYIKwYBBQUH
AwIwCwYDVR0PBAQDAgeAMA0GCSqGSIb3DQEBCwUAA4IBAQAE/KIg7zVldPUVHP2o
ja1vThM+7285t3FlsahHAnhmWdRH4Z6OPhcb9hwvkSaxMbP2ttAE4cuQXiUpi5vM
ZCmKpjK+L35Gaq/wU6X6lpv5vGGCbAS8sOat3VebvAL/w9sQoOW0O9X2Y70BOs4x
Nf6aW0wsWvsDP5FEQJkCkS8RWDE4V9hNnxDuIVfTSyxY9AIaCDI+RF2phWCm7ZZI
OZ/6E4ZhGvfFYIQuLRil7l+wpUqutobiwhQ+zU2pNFeBRHrcbWMZ6g5qioXklFRe
pvbkkJ5pLNF9xfpfE5jxYAGHnOGH7e2MdIfzBqkmddB9Ij+FGBPcCid693MUbp9G
3UbG
-----END CERTIFICATE-----
